; Function Attrs: mustprogress nounwind sspstrong willreturn uwtable
define dso_local void @flac__foreign_metadata_delete(ptr noundef %0) local_unnamed_addr #3 {
  %.not = icmp eq ptr %0, null
  br i1 %.not, label %7, label %2

2:                                                ; preds = %1
  %3 = getelementptr inbounds nuw i8, ptr %0, i64 8
  %4 = load ptr, ptr %3, align 8, !tbaa !11
  %.not5 = icmp eq ptr %4, null
  br i1 %.not5, label %6, label %5

5:                                                ; preds = %2
  tail call void @free(ptr noundef nonnull %4) #14
  br label %6

6:                                                ; preds = %5, %2
  tail call void @free(ptr noundef nonnull %0) #14
  br label %7

7:                                                ; preds = %6, %1
  ret void
}